; Function Attrs: cold nounwind optsize uwtable
define internal noundef i32 @dnxhd_decode_close(ptr noundef readonly captures(none) %0) #0 {
  %2 = getelementptr inbounds nuw i8, ptr %0, i64 32
  %3 = load ptr, ptr %2, align 8, !tbaa !4
  %4 = getelementptr inbounds nuw i8, ptr %3, i64 2152
  tail call void @ff_vlc_free(ptr noundef nonnull %4) #4
  %5 = getelementptr inbounds nuw i8, ptr %3, i64 2176
  tail call void @ff_vlc_free(ptr noundef nonnull %5) #4
  %6 = getelementptr inbounds nuw i8, ptr %3, i64 2200
  tail call void @ff_vlc_free(ptr noundef nonnull %6) #4
  %7 = getelementptr inbounds nuw i8, ptr %3, i64 8
  tail call void @av_freep(ptr noundef nonnull %7) #4
  ret i32 0
}